Certificate:
    Data:
        Version: 1 (0x0)
        Serial Number: 1 (0x1)
    Signature Algorithm: sha512WithRSAEncryption
        Issuer: O=LemonsCorp, OU=IT/emailAddress=itops@lemoncorp.ua, L=Kharkiv, ST=Ukraine, C=UA, CN=mainca.lemoncorp.ua
        Validity
            Not Before: Oct 11 15:05:35 2019 GMT
            Not After : Oct  8 15:05:35 2029 GMT
        Subject: C=UA, ST=Ukraine, O=LemonsCorp, OU=IT, CN=ec01-limon01
        Subject Public Key Info:
            Public Key Algorithm: rsaEncryption
                Public-Key: (4096 bit)
                Modulus:
                    00:bc:01:68:25:7d:d1:1a:af:dd:e2:56:c1:63:f8:
                    28:8f:a2:cd:5c:35:68:0b:86:97:7a:c5:cf:92:b1:
                    be:70:c8:59:0a:d6:0a:83:53:7c:15:c3:62:10:e9:
                    7c:9c:92:87:43:70:e8:0c:21:61:dd:be:3b:ae:0c:
                    12:08:9a:30:2e:bd:ae:73:13:86:6b:17:eb:70:6c:
                    02:7e:b4:59:c7:9e:06:9f:83:e6:04:e2:3d:eb:cd:
                    ab:b6:cd:f5:f7:c2:71:f8:88:6d:21:a3:ac:25:36:
                    f3:e5:a0:60:ae:c1:45:bc:b7:9d:de:cc:c6:08:d3:
                    4f:eb:15:92:b6:6a:1d:c4:85:f1:b3:cc:06:a1:27:
                    1b:71:da:a8:eb:18:db:e9:3d:8a:f9:78:f2:f4:63:
                    55:b1:6a:55:74:3a:2b:af:15:04:54:ad:86:02:d3:
                    97:d0:39:ec:90:f8:1d:85:94:f4:bb:01:be:80:15:
                    09:3d:95:81:41:56:d5:f2:f1:a2:21:1b:c0:bf:b8:
                    01:46:cf:28:21:02:c8:cd:00:f0:30:50:7b:a0:a2:
                    99:79:11:3e:77:54:73:7c:de:ea:f9:48:70:14:fc:
                    e9:6c:ba:88:65:aa:2d:74:43:ad:a2:11:14:ec:08:
                    5c:7b:82:61:20:7c:9a:66:ec:fa:6c:13:4c:9c:28:
                    d9:ab:84:a5:14:83:f4:b3:86:e2:3c:c3:a0:4c:4f:
                    c4:e7:e2:6e:5d:9a:61:4e:df:60:88:17:ac:69:a4:
                    ca:bb:00:2d:7a:24:b5:75:35:25:ad:c0:8b:9e:3a:
                    15:51:82:b5:18:07:a2:b2:e2:97:3b:35:2d:4b:50:
                    ea:f6:6d:5a:4e:52:4b:8f:ff:e7:84:fb:f2:bf:5f:
                    36:45:8e:29:73:8a:d9:87:79:df:61:90:64:66:fa:
                    23:8e:e1:2a:e0:71:7f:51:46:86:7f:83:61:52:76:
                    80:68:74:2d:a3:95:44:3a:d3:c2:74:e6:ce:31:73:
                    fd:eb:78:6e:7e:18:ab:6c:ad:64:f5:8c:6e:af:b4:
                    30:df:19:91:03:30:4a:27:ec:03:0d:16:c2:c3:e4:
                    e8:7f:04:be:3c:ae:2d:2e:e1:50:c2:3a:b3:bd:80:
                    ea:e6:cd:82:4c:c7:fb:d8:54:e0:e3:1e:e6:5e:61:
                    9d:73:00:0e:06:40:b5:9f:2a:61:5e:52:d3:30:d4:
                    ba:15:3e:5f:70:9e:99:cc:8f:87:fc:75:07:0f:e0:
                    9d:22:85:53:d4:c5:c7:0b:86:be:90:1d:1c:24:d7:
                    7b:3e:5e:ad:b8:64:a3:0a:72:a2:e5:e7:ce:f6:b2:
                    53:a4:9a:66:48:7a:b1:17:0a:90:1e:de:29:af:56:
                    ef:e6:9d
                Exponent: 65537 (0x10001)
    Signature Algorithm: sha512WithRSAEncryption
         7f:70:d6:61:f7:e1:60:52:1d:87:f5:2d:86:c1:f6:b0:ee:23:
         00:06:50:66:24:be:45:de:58:16:7e:56:f9:e9:41:ac:aa:0c:
         02:47:0f:07:42:2a:4a:12:19:a4:ad:6c:31:fd:a8:02:19:dc:
         dc:72:b6:af:2a:85:4b:41:4e:ca:ee:bb:9e:38:9c:cd:1f:2c:
         77:68:33:aa:9a:5e:f0:e8:c3:fc:37:1c:7e:e3:00:4c:d9:da:
         e1:eb:71:b8:76:5c:f7:ae:c2:ed:b3:58:e1:94:33:df:22:43:
         d6:ef:2b:df:3a:57:b6:43:33:c9:80:21:66:a0:6f:3c:e5:b8:
         f7:f6:ff:4e:33:91:f0:11:76:83:08:ce:a0:df:78:98:2b:02:
         c1:6b:c8:47:86:9b:07:7d:e6:99:9a:b0:7a:20:b2:57:35:8a:
         83:ee:f1:4d:b4:df:67:71:08:e7:1f:be:01:e9:1e:93:fc:3f:
         36:53:b5:39:4c:58:c0:ca:41:93:c5:a7:7e:60:88:26:fa:45:
         a9:db:eb:39:ab:35:96:07:96:ee:02:a1:23:bb:ef:ca:78:5c:
         a2:a5:20:ae:10:93:31:bf:3b:d1:6f:1f:0c:d8:d4:19:11:7f:
         90:8c:ad:47:d6:70:31:51:ad:3e:15:dd:d8:9f:8d:35:b3:70:
         a8:b0:b3:a3:68:38:d4:c3:45:01:ff:8e:72:9d:00:1b:c6:e1:
         58:ea:10:22:e2:e1:99:16:dd:07:47:e1:9f:5b:a4:04:d0:70:
         48:51:92:e5:74:5d:93:6e:bc:ee:b6:7c:89:f5:b5:6c:3d:b7:
         9e:3e:8c:40:3c:b7:8e:4b:0d:53:88:de:5d:5b:0d:8b:29:6b:
         44:a9:46:b4:49:97:10:30:5e:aa:b3:5a:72:e4:6f:fa:97:49:
         ba:41:48:0f:d5:21:3e:88:b6:13:25:5a:36:55:cb:c0:22:30:
         74:a3:d2:41:ce:75:37:e2:55:e7:44:6f:3e:10:65:44:9d:81:
         3c:56:c8:6e:d9:c6:0a:c5:a7:31:1f:48:56:7c:75:a8:96:b3:
         04:ce:6f:8a:72:e1:89:d4:76:3b:72:71:a0:17:d9:9c:02:f0:
         68:df:b8:d7:87:92:e2:bb:09:76:bd:30:22:14:c4:a4:fd:fe:
         52:1b:ac:21:c3:58:56:ba:69:65:15:63:26:eb:8f:09:66:7e:
         70:50:55:e2:f0:5e:bc:34:49:1e:f1:2f:5a:a0:87:a8:ae:d4:
         6e:8b:e5:49:d5:ea:dd:94:66:cf:c9:3a:6c:3b:87:57:99:8f:
         c7:46:9d:67:8f:80:02:d1:c6:e4:b1:97:bb:15:be:f9:29:79:
         54:eb:12:6d:e6:7c:eb:ab
-----BEGIN CERTIFICATE-----
MIIFYTCCA0kCAQEwDQYJKoZIhvcNAQENBQAwgZQxEzARBgNVBAoTCkxlbW9uc0Nv
cnAxCzAJBgNVBAsTAklUMSEwHwYJKoZIhvcNAQkBFhJpdG9wc0BsZW1vbmNvcnAu
dWExEDAOBgNVBAcTB0toYXJraXYxEDAOBgNVBAgTB1VrcmFpbmUxCzAJBgNVBAYT
AlVBMRwwGgYDVQQDExNtYWluY2EubGVtb25jb3JwLnVhMB4XDTE5MTAxMTE1MDUz
NVoXDTI5MTAwODE1MDUzNVowWDELMAkGA1UEBhMCVUExEDAOBgNVBAgTB1VrcmFp
bmUxEzARBgNVBAoTCkxlbW9uc0NvcnAxCzAJBgNVBAsTAklUMRUwEwYDVQQDEwxl
YzAxLWxpbW9uMDEwggIiMA0GCSqGSIb3DQEBAQUAA4ICDwAwggIKAoICAQC8AWgl
fdEar93iVsFj+CiPos1cNWgLhpd6xc+Ssb5wyFkK1gqDU3wVw2IQ6XyckodDcOgM
IWHdvjuuDBIImjAuva5zE4ZrF+twbAJ+tFnHngafg+YE4j3rzau2zfX3wnH4iG0h
o6wlNvPloGCuwUW8t53ezMYI00/rFZK2ah3EhfGzzAahJxtx2qjrGNvpPYr5ePL0
Y1WxalV0OiuvFQRUrYYC05fQOeyQ+B2FlPS7Ab6AFQk9lYFBVtXy8aIhG8C/uAFG
zyghAsjNAPAwUHugopl5ET53VHN83ur5SHAU/Olsuohlqi10Q62iERTsCFx7gmEg
fJpm7PpsE0ycKNmrhKUUg/SzhuI8w6BMT8Tn4m5dmmFO32CIF6xppMq7AC16JLV1
NSWtwIueOhVRgrUYB6Ky4pc7NS1LUOr2bVpOUkuP/+eE+/K/XzZFjilzitmHed9h
kGRm+iOO4SrgcX9RRoZ/g2FSdoBodC2jlUQ608J05s4xc/3reG5+GKtsrWT1jG6v
tDDfGZEDMEon7AMNFsLD5Oh/BL48ri0u4VDCOrO9gOrmzYJMx/vYVODjHuZeYZ1z
AA4GQLWfKmFeUtMw1LoVPl9wnpnMj4f8dQcP4J0ihVPUxccLhr6QHRwk13s+Xq24
ZKMKcqLl5872slOkmmZIerEXCpAe3imvVu/mnQIDAQABMA0GCSqGSIb3DQEBDQUA
A4ICAQB/cNZh9+FgUh2H9S2Gwfaw7iMABlBmJL5F3lgWflb56UGsqgwCRw8HQipK
EhmkrWwx/agCGdzccravKoVLQU7K7rueOJzNHyx3aDOqml7w6MP8Nxx+4wBM2drh
63G4dlz3rsLts1jhlDPfIkPW7yvfOle2QzPJgCFmoG885bj39v9OM5HwEXaDCM6g
33iYKwLBa8hHhpsHfeaZmrB6ILJXNYqD7vFNtN9ncQjnH74B6R6T/D82U7U5TFjA
ykGTxad+YIgm+kWp2+s5qzWWB5buAqEju+/KeFyipSCuEJMxvzvRbx8M2NQZEX+Q
jK1H1nAxUa0+Fd3Yn401s3CosLOjaDjUw0UB/45ynQAbxuFY6hAi4uGZFt0HR+Gf
W6QE0HBIUZLldF2TbrzutnyJ9bVsPbeePoxAPLeOSw1TiN5dWw2LKWtEqUa0SZcQ
MF6qs1py5G/6l0m6QUgP1SE+iLYTJVo2VcvAIjB0o9JBznU34lXnRG8+EGVEnYE8
Vshu2cYKxacxH0hWfHWolrMEzm+KcuGJ1HY7cnGgF9mcAvBo37jXh5Liuwl2vTAi
FMSk/f5SG6whw1hWumllFWMm648JZn5wUFXi8F68NEke8S9aoIeortRui+VJ1erd
lGbPyTpsO4dXmY/HRp1nj4AC0cbksZe7Fb75KXlU6xJt5nzrqw==
-----END CERTIFICATE-----
