Certificate:
    Data:
        Version: 1 (0x0)
        Serial Number: 2 (0x2)
    Signature Algorithm: sha512WithRSAEncryption
        Issuer: O=LemonsCorp, OU=IT/emailAddress=itops@lemoncorp.ua, L=Kharkiv, ST=Ukraine, C=UA, CN=mainca.lemoncorp.ua
        Validity
            Not Before: Oct 11 15:13:31 2019 GMT
            Not After : Oct  8 15:13:31 2029 GMT
        Subject: C=UA, ST=Ukraine, O=LemonsCorp, OU=IT, CN=ec01-limon01
        Subject Public Key Info:
            Public Key Algorithm: rsaEncryption
                Public-Key: (4096 bit)
                Modulus:
                    00:c1:ef:24:e1:18:c2:22:1a:2b:65:37:15:be:7a:
                    3d:b5:13:95:1a:63:6c:bd:d1:95:8d:d6:2a:da:f1:
                    d3:51:75:32:f0:a7:a2:ed:e6:fa:7c:31:01:31:88:
                    94:fa:5b:c7:11:ee:78:f7:ab:38:67:55:90:ee:bd:
                    9a:71:2c:10:b1:37:51:15:8b:19:6c:99:a9:ce:a6:
                    c9:d7:c2:34:c0:a7:13:a6:ee:23:65:fe:58:a0:7e:
                    32:5b:26:f5:09:9c:e0:b9:31:5e:98:b3:76:af:37:
                    db:1c:17:9e:91:58:2e:c9:18:c9:fb:4c:e5:bb:fd:
                    38:04:b5:9e:9c:56:f9:77:a9:cd:38:ad:8e:eb:97:
                    b4:28:ec:de:58:da:de:9d:73:5a:2f:9e:d9:b1:c8:
                    d2:2b:26:17:2e:80:67:49:1d:07:d5:5b:9d:26:74:
                    20:0a:2f:02:41:11:50:f9:ca:60:32:b2:99:72:2c:
                    b7:4c:8a:d8:01:b3:42:95:6a:71:fd:51:47:e6:8b:
                    06:72:92:33:a2:1d:cb:6d:9d:b2:1f:6d:2d:60:4a:
                    53:1e:71:e8:ad:ca:96:00:88:9c:43:10:86:c9:5b:
                    2b:9b:f9:5c:1e:23:99:d2:e5:49:f4:cb:4d:1d:86:
                    39:a9:50:bb:e8:f5:ff:29:de:cf:d4:d1:bc:93:3b:
                    85:04:6a:65:28:c9:b4:f4:4e:20:7c:65:0b:36:db:
                    c9:05:6d:73:8a:2d:d5:5e:50:0a:f7:7f:ec:42:d1:
                    e3:88:ef:cc:0c:e1:ea:89:6c:c2:4e:62:4e:71:b4:
                    e5:42:4b:5f:de:8b:53:8f:3b:88:1b:5c:cf:d1:14:
                    c2:0d:da:1b:cf:77:a3:34:36:11:9e:00:76:eb:c2:
                    7a:8a:f9:61:91:b4:f6:69:48:af:6f:5d:37:af:ed:
                    3c:41:d1:86:c1:03:4b:37:8d:d3:6f:5d:d9:b5:8e:
                    06:d4:d8:0e:aa:4d:85:60:dc:c1:34:62:39:96:1b:
                    2a:06:83:d7:4d:91:05:3f:e8:ad:4e:ea:58:4f:95:
                    1d:dd:8b:eb:ca:fb:42:e4:a6:8b:17:90:b4:93:3b:
                    03:49:f5:8c:1e:aa:70:ca:96:51:aa:76:63:b4:ea:
                    c6:fb:c5:54:67:73:0c:17:ab:d7:88:d2:4c:c1:5a:
                    d0:2a:27:5c:42:fb:b4:05:fa:df:04:94:df:f4:89:
                    ed:a9:7d:d5:d8:05:99:50:7d:bc:7d:88:e8:52:60:
                    cf:c5:7d:15:3b:5b:79:fb:72:71:13:80:b1:09:aa:
                    c1:c9:25:e4:32:49:68:2a:2b:cb:61:76:d5:65:30:
                    1c:3c:4d:d2:30:d2:20:b0:bc:a0:e6:fd:29:f6:d5:
                    bd:bc:55
                Exponent: 65537 (0x10001)
    Signature Algorithm: sha512WithRSAEncryption
         a0:4f:8a:96:1c:fa:f9:02:f2:a9:51:6c:cd:81:f9:ef:f1:8d:
         4a:b4:36:ab:51:b9:39:e4:c5:4c:ac:16:98:39:7b:c0:10:e9:
         1f:de:20:6f:5c:25:f4:9f:2c:0d:94:7b:8a:e7:f8:3c:e7:de:
         31:e4:ce:18:ce:61:cc:0b:cb:fa:8d:e7:bc:5a:16:6b:27:51:
         17:aa:0e:06:bd:3d:20:af:76:1f:ec:e0:55:0a:db:90:48:eb:
         69:f2:b4:33:c9:f5:cc:7f:ea:8c:66:e2:ce:71:8f:f1:35:1a:
         d5:3f:5b:e5:a2:a2:9b:04:2b:ac:37:80:da:8c:17:14:d4:d2:
         45:a2:8b:5e:c6:ce:51:b8:54:d4:ee:1b:d3:74:bf:96:33:28:
         5e:25:06:a5:f6:cf:7b:c7:22:6a:7f:3e:60:33:25:e1:c7:ac:
         e7:10:fc:6c:ec:e9:71:af:59:73:97:2c:d9:60:0a:38:0c:7f:
         41:2b:af:4a:d2:b9:03:da:44:4f:5c:78:5d:6a:89:30:2b:13:
         a8:cd:64:a6:34:0e:86:be:46:c3:14:09:4f:90:ca:48:10:c6:
         8d:ee:ae:39:09:7d:fe:b7:33:22:d2:2f:08:4c:96:ac:9e:c6:
         80:08:b8:45:86:89:9b:cf:46:da:e1:12:56:1b:a9:af:f5:45:
         d0:22:30:41:62:65:bf:0a:f3:30:7a:d5:50:e1:8a:d1:be:60:
         c0:b1:ca:97:06:f1:af:8d:59:ea:7b:4a:83:bc:7e:60:99:7b:
         dd:aa:88:9a:2d:96:ce:b0:c2:8e:fc:18:e5:b5:cb:f7:92:f8:
         92:df:37:ce:69:44:55:5b:b3:43:2b:23:ea:57:68:78:b2:2a:
         f5:94:a4:4e:4c:a3:cf:db:8b:c1:b9:73:65:70:64:d0:8b:1b:
         b1:34:87:ba:bc:de:a5:81:f8:49:a1:82:2b:00:35:0a:25:a4:
         dc:91:a6:6c:dd:71:3a:03:c8:ef:b5:c4:fa:64:cf:22:71:db:
         e5:15:d3:97:5b:b0:23:95:7a:f7:56:c4:44:b2:ef:d9:c3:13:
         75:57:a4:92:c7:16:2b:3b:77:cf:fc:28:d0:39:d5:07:61:63:
         0b:e9:09:89:b4:85:e5:31:5c:ba:6d:5d:ad:62:c2:90:5c:e3:
         f0:11:91:aa:7a:d0:69:0f:97:0a:e2:5f:22:10:9b:78:82:71:
         92:4c:9a:96:7c:a0:00:3f:23:8a:7d:91:71:ef:da:38:79:df:
         87:c3:34:0c:b6:02:9c:e7:cd:12:07:0a:31:1c:05:11:ac:fd:
         4a:71:60:f0:25:4c:03:36:56:47:09:1d:9a:27:b6:64:03:81:
         78:b7:ae:57:a4:68:34:53
-----BEGIN CERTIFICATE-----
MIIFYTCCA0kCAQIwDQYJKoZIhvcNAQENBQAwgZQxEzARBgNVBAoTCkxlbW9uc0Nv
cnAxCzAJBgNVBAsTAklUMSEwHwYJKoZIhvcNAQkBFhJpdG9wc0BsZW1vbmNvcnAu
dWExEDAOBgNVBAcTB0toYXJraXYxEDAOBgNVBAgTB1VrcmFpbmUxCzAJBgNVBAYT
AlVBMRwwGgYDVQQDExNtYWluY2EubGVtb25jb3JwLnVhMB4XDTE5MTAxMTE1MTMz
MVoXDTI5MTAwODE1MTMzMVowWDELMAkGA1UEBhMCVUExEDAOBgNVBAgTB1VrcmFp
bmUxEzARBgNVBAoTCkxlbW9uc0NvcnAxCzAJBgNVBAsTAklUMRUwEwYDVQQDEwxl
YzAxLWxpbW9uMDEwggIiMA0GCSqGSIb3DQEBAQUAA4ICDwAwggIKAoICAQDB7yTh
GMIiGitlNxW+ej21E5UaY2y90ZWN1ira8dNRdTLwp6Lt5vp8MQExiJT6W8cR7nj3
qzhnVZDuvZpxLBCxN1EVixlsmanOpsnXwjTApxOm7iNl/ligfjJbJvUJnOC5MV6Y
s3avN9scF56RWC7JGMn7TOW7/TgEtZ6cVvl3qc04rY7rl7Qo7N5Y2t6dc1ovntmx
yNIrJhcugGdJHQfVW50mdCAKLwJBEVD5ymAysplyLLdMitgBs0KVanH9UUfmiwZy
kjOiHcttnbIfbS1gSlMeceitypYAiJxDEIbJWyub+VweI5nS5Un0y00dhjmpULvo
9f8p3s/U0byTO4UEamUoybT0TiB8ZQs228kFbXOKLdVeUAr3f+xC0eOI78wM4eqJ
bMJOYk5xtOVCS1/ei1OPO4gbXM/RFMIN2hvPd6M0NhGeAHbrwnqK+WGRtPZpSK9v
XTev7TxB0YbBA0s3jdNvXdm1jgbU2A6qTYVg3ME0YjmWGyoGg9dNkQU/6K1O6lhP
lR3di+vK+0LkposXkLSTOwNJ9YweqnDKllGqdmO06sb7xVRncwwXq9eI0kzBWtAq
J1xC+7QF+t8ElN/0ie2pfdXYBZlQfbx9iOhSYM/FfRU7W3n7cnETgLEJqsHJJeQy
SWgqK8thdtVlMBw8TdIw0iCwvKDm/Sn21b28VQIDAQABMA0GCSqGSIb3DQEBDQUA
A4ICAQCgT4qWHPr5AvKpUWzNgfnv8Y1KtDarUbk55MVMrBaYOXvAEOkf3iBvXCX0
nywNlHuK5/g8594x5M4YzmHMC8v6jee8WhZrJ1EXqg4GvT0gr3Yf7OBVCtuQSOtp
8rQzyfXMf+qMZuLOcY/xNRrVP1vloqKbBCusN4DajBcU1NJFootexs5RuFTU7hvT
dL+WMyheJQal9s97xyJqfz5gMyXhx6znEPxs7Olxr1lzlyzZYAo4DH9BK69K0rkD
2kRPXHhdaokwKxOozWSmNA6GvkbDFAlPkMpIEMaN7q45CX3+tzMi0i8ITJasnsaA
CLhFhombz0ba4RJWG6mv9UXQIjBBYmW/CvMwetVQ4YrRvmDAscqXBvGvjVnqe0qD
vH5gmXvdqoiaLZbOsMKO/Bjltcv3kviS3zfOaURVW7NDKyPqV2h4sir1lKROTKPP
24vBuXNlcGTQixuxNIe6vN6lgfhJoYIrADUKJaTckaZs3XE6A8jvtcT6ZM8icdvl
FdOXW7AjlXr3VsREsu/ZwxN1V6SSxxYrO3fP/CjQOdUHYWML6QmJtIXlMVy6bV2t
YsKQXOPwEZGqetBpD5cK4l8iEJt4gnGSTJqWfKAAPyOKfZFx79o4ed+HwzQMtgKc
580SBwoxHAURrP1KcWDwJUwDNlZHCR2aJ7ZkA4F4t65XpGg0Uw==
-----END CERTIFICATE-----
